target datalayout = "e-m:e-p270:32:32-p271:32:32-p272:64:64-i64:64-i128:128-f80:128-n8:16:32:64-S128"
target triple = "x86_64-pc-linux-gnu"

; Function Attrs: nounwind uwtable
define internal void @spatial_compensation_1(ptr noalias noundef %0, ptr noalias noundef %1, i64 noundef %2) #1 {
  %4 = alloca ptr, align 8
  %5 = alloca ptr, align 8
  %6 = alloca i64, align 8
  %7 = alloca i32, align 4
  %8 = alloca i32, align 4
  store ptr %0, ptr %4, align 8, !tbaa !14
  store ptr %1, ptr %5, align 8, !tbaa !14
  store i64 %2, ptr %6, align 8, !tbaa !16
  call void @llvm.lifetime.start.p0(i64 4, ptr %7) #6
  call void @llvm.lifetime.start.p0(i64 4, ptr %8) #6
  store i32 0, ptr %8, align 4, !tbaa !18
  br label %9

9:                                                ; preds = %48, %3
  %10 = load i32, ptr %8, align 4, !tbaa !18
  %11 = icmp slt i32 %10, 8
  br i1 %11, label %12, label %51

12:                                               ; preds = %9
  store i32 0, ptr %7, align 4, !tbaa !18
  br label %13

13:                                               ; preds = %41, %12
  %14 = load i32, ptr %7, align 4, !tbaa !18
  %15 = icmp slt i32 %14, 8
  br i1 %15, label %16, label %44

16:                                               ; preds = %13
  %17 = load ptr, ptr %4, align 8, !tbaa !14
  %18 = load i32, ptr %8, align 4, !tbaa !18
  %19 = mul nsw i32 2, %18
  %20 = load i32, ptr %7, align 4, !tbaa !18
  %21 = add nsw i32 %19, %20
  %22 = add nsw i32 %21, 2
  %23 = icmp sgt i32 %22, 15
  br i1 %23, label %24, label %25

24:                                               ; preds = %16
  br label %31

25:                                               ; preds = %16
  %26 = load i32, ptr %8, align 4, !tbaa !18
  %27 = mul nsw i32 2, %26
  %28 = load i32, ptr %7, align 4, !tbaa !18
  %29 = add nsw i32 %27, %28
  %30 = add nsw i32 %29, 2
  br label %31

31:                                               ; preds = %25, %24
  %32 = phi i32 [ 15, %24 ], [ %30, %25 ]
  %33 = add nsw i32 17, %32
  %34 = sext i32 %33 to i64
  %35 = getelementptr inbounds i8, ptr %17, i64 %34
  %36 = load i8, ptr %35, align 1, !tbaa !22
  %37 = load ptr, ptr %5, align 8, !tbaa !14
  %38 = load i32, ptr %7, align 4, !tbaa !18
  %39 = sext i32 %38 to i64
  %40 = getelementptr inbounds i8, ptr %37, i64 %39
  store i8 %36, ptr %40, align 1, !tbaa !22
  br label %41

41:                                               ; preds = %31
  %42 = load i32, ptr %7, align 4, !tbaa !18
  %43 = add nsw i32 %42, 1
  store i32 %43, ptr %7, align 4, !tbaa !18
  br label %13, !llvm.loop !39

44:                                               ; preds = %13
  %45 = load i64, ptr %6, align 8, !tbaa !16
  %46 = load ptr, ptr %5, align 8, !tbaa !14
  %47 = getelementptr inbounds i8, ptr %46, i64 %45
  store ptr %47, ptr %5, align 8, !tbaa !14
  br label %48

48:                                               ; preds = %44
  %49 = load i32, ptr %8, align 4, !tbaa !18
  %50 = add nsw i32 %49, 1
  store i32 %50, ptr %8, align 4, !tbaa !18
  br label %9, !llvm.loop !40

51:                                               ; preds = %9
  call void @llvm.lifetime.end.p0(i64 4, ptr %8) #6
  call void @llvm.lifetime.end.p0(i64 4, ptr %7) #6
  ret void
}