; Function Attrs: nofree norecurse nosync nounwind memory(argmem: readwrite) uwtable
define internal void @spatial_compensation_1(ptr noalias noundef readonly captures(none) %0, ptr noalias noundef writeonly captures(none) %1, i64 noundef %2) #1 {
  %invariant.gep = getelementptr inbounds nuw i8, ptr %0, i64 19
  br label %.preheader

.preheader:                                       ; preds = %3, %12
  %indvars.iv19 = phi i64 [ 0, %3 ], [ %indvars.iv.next20, %12 ]
  %.01316 = phi ptr [ %1, %3 ], [ %13, %12 ]
  %4 = shl nuw nsw i64 %indvars.iv19, 1
  br label %5

5:                                                ; preds = %.preheader, %5
  %indvars.iv = phi i64 [ 0, %.preheader ], [ %indvars.iv.next, %5 ]
  %6 = add nuw nsw i64 %indvars.iv, %4
  %7 = trunc nuw nsw i64 %6 to i32
  %8 = tail call i32 @llvm.umin.i32(i32 %7, i32 13)
  %9 = zext nneg i32 %8 to i64
  %gep = getelementptr inbounds nuw i8, ptr %invariant.gep, i64 %9
  %10 = load i8, ptr %gep, align 1, !tbaa !14
  %11 = getelementptr inbounds nuw i8, ptr %.01316, i64 %indvars.iv
  store i8 %10, ptr %11, align 1, !tbaa !14
  %indvars.iv.next = add nuw nsw i64 %indvars.iv, 1
  %exitcond.not = icmp eq i64 %indvars.iv.next, 8
  br i1 %exitcond.not, label %12, label %5, !llvm.loop !30

12:                                               ; preds = %5
  %13 = getelementptr inbounds i8, ptr %.01316, i64 %2
  %indvars.iv.next20 = add nuw nsw i64 %indvars.iv19, 1
  %exitcond22.not = icmp eq i64 %indvars.iv.next20, 8
  br i1 %exitcond22.not, label %14, label %.preheader, !llvm.loop !31

14:                                               ; preds = %12
  ret void
}